target datalayout = "e-m:e-p270:32:32-p271:32:32-p272:64:64-i64:64-i128:128-f80:128-n8:16:32:64-S128"
target triple = "x86_64-pc-linux-gnu"

%"class.std::__cxx11::basic_string" = type { %"struct.std::__cxx11::basic_string<char>::_Alloc_hider", i64, %union.anon }
%"struct.std::__cxx11::basic_string<char>::_Alloc_hider" = type { ptr }
%union.anon = type { i64, [8 x i8] }
%"struct.Imf_3_4::(anonymous namespace)::TileCoord" = type { i32, i32, i32, i32 }
%"struct.Imf_3_4::(anonymous namespace)::TileBuffer" = type { %"class.Imf_3_4::Array", ptr, i32, ptr, %"struct.Imf_3_4::(anonymous namespace)::TileCoord", i8, %"class.std::__cxx11::basic_string", %"class.IlmThread_3_4::Semaphore" }
%"class.Imf_3_4::Array" = type { i64, ptr }
%"class.IlmThread_3_4::Semaphore" = type { ptr, %union.sem_t }
%union.sem_t = type { i64, [24 x i8] }
%"class.Imf_3_4::(anonymous namespace)::TileBufferTask" = type { %"class.IlmThread_3_4::Task", ptr, ptr }
%"class.IlmThread_3_4::Task" = type { ptr, ptr }

; Function Attrs: inlinehint mustprogress uwtable
define internal void @_ZN7Imf_3_412_GLOBAL__N_110TileBuffer4postEv(ptr noundef nonnull align 8 dereferenceable(136) %0) #13 align 2 {
  %2 = alloca ptr, align 8
  store ptr %0, ptr %2, align 8, !tbaa !109
  %3 = load ptr, ptr %2, align 8
  %4 = getelementptr inbounds nuw %"struct.Imf_3_4::(anonymous namespace)::TileBuffer", ptr %3, i32 0, i32 7
  call void @_ZN13IlmThread_3_49Semaphore4postEv(ptr noundef nonnull align 8 dereferenceable(40) %4)
  ret void
}

; Function Attrs: mustprogress nounwind uwtable
define internal void @_ZN7Imf_3_412_GLOBAL__N_114TileBufferTaskD2Ev(ptr noundef nonnull align 8 dereferenceable(32) %0) unnamed_addr #5 align 2 personality ptr @__gxx_personality_v0 {
  %2 = alloca ptr, align 8
  store ptr %0, ptr %2, align 8, !tbaa !241
  %3 = load ptr, ptr %2, align 8
  store ptr getelementptr inbounds inrange(-16, 24) ({ [5 x ptr] }, ptr @_ZTVN7Imf_3_412_GLOBAL__N_114TileBufferTaskE, i32 0, i32 0, i32 2), ptr %3, align 8, !tbaa !126
  %4 = getelementptr inbounds nuw %"class.Imf_3_4::(anonymous namespace)::TileBufferTask", ptr %3, i32 0, i32 2
  %5 = load ptr, ptr %4, align 8, !tbaa !248
  invoke void @_ZN7Imf_3_412_GLOBAL__N_110TileBuffer4postEv(ptr noundef nonnull align 8 dereferenceable(136) %5)
          to label %6 unwind label %7

6:                                                ; preds = %1
  call void @_ZN13IlmThread_3_44TaskD2Ev(ptr noundef nonnull align 8 dereferenceable(16) %3) #3
  ret void

7:                                                ; preds = %1
  %8 = landingpad { ptr, i32 }
          catch ptr null
  %9 = extractvalue { ptr, i32 } %8, 0
  call void @__clang_call_terminate(ptr %9) #21
  unreachable
}

; Function Attrs: mustprogress nounwind uwtable
define internal void @_ZN7Imf_3_412_GLOBAL__N_114TileBufferTaskD0Ev(ptr noundef nonnull align 8 dereferenceable(32) %0) unnamed_addr #5 align 2 {
  %2 = alloca ptr, align 8
  store ptr %0, ptr %2, align 8, !tbaa !241
  %3 = load ptr, ptr %2, align 8
  call void @_ZN7Imf_3_412_GLOBAL__N_114TileBufferTaskD2Ev(ptr noundef nonnull align 8 dereferenceable(32) %3) #3
  call void @_ZdlPvm(ptr noundef %3, i64 noundef 32) #22
  ret void
}